; Function Attrs: mustprogress nofree norecurse nosync nounwind willreturn memory(read, inaccessiblemem: none) uwtable
define internal { ptr, i64 } @_ZNK4llvm2cl6parserIN12_GLOBAL__N_114PassDebugLevelEE14getDescriptionEj(ptr nocapture noundef nonnull readonly align 8 dereferenceable(416) %0, i32 noundef %1) unnamed_addr #16 align 2 {
  %3 = getelementptr inbounds nuw i8, ptr %0, i64 16
  %4 = zext i32 %1 to i64
  %.val = load ptr, ptr %3, align 8
  %5 = getelementptr inbounds %"class.llvm::cl::parser<(anonymous namespace)::PassDebugLevel>::OptionInfo", ptr %.val, i64 %4
  %6 = getelementptr inbounds nuw i8, ptr %5, i64 16
  %.sroa.0.0.copyload = load ptr, ptr %6, align 8
  %.sroa.2.0..sroa_idx = getelementptr inbounds i8, ptr %5, i64 24
  %.sroa.2.0.copyload = load i64, ptr %.sroa.2.0..sroa_idx, align 8
  %.fca.0.insert = insertvalue { ptr, i64 } poison, ptr %.sroa.0.0.copyload, 0
  %.fca.1.insert = insertvalue { ptr, i64 } %.fca.0.insert, i64 %.sroa.2.0.copyload, 1
  ret { ptr, i64 } %.fca.1.insert
}